; Function Attrs: mustprogress uwtable
define hidden void @_ZNK4cvc58internal4prop10PropEngine26notifyTopLevelSubstitutionERKNS0_12NodeTemplateILb1EEES6_(ptr noundef nonnull align 8 dereferenceable(416) %0, ptr noundef nonnull align 8 dereferenceable(8) %1, ptr noundef nonnull align 8 dereferenceable(8) %2) local_unnamed_addr #4 align 2 personality ptr @__gxx_personality_v0 {
  %4 = alloca %"class.cvc5::internal::NodeTemplate", align 8
  %5 = alloca %"class.cvc5::internal::NodeTemplate", align 8
  %6 = getelementptr inbounds nuw i8, ptr %0, i64 40
  %7 = load ptr, ptr %6, align 8, !tbaa !272
  tail call void @_ZNK4cvc58internal4prop11TheoryProxy26notifyTopLevelSubstitutionERKNS0_12NodeTemplateILb1EEES6_(ptr noundef nonnull align 8 dereferenceable(521) %7, ptr noundef nonnull align 8 dereferenceable(8) %1, ptr noundef nonnull align 8 dereferenceable(8) %2)
  %8 = tail call noundef zeroext i1 @_ZNK4cvc58internal6EnvObj10isOutputOnENS0_7options9OutputTagE(ptr noundef nonnull align 8 dereferenceable(16) %0, i32 noundef 11)
  br i1 %8, label %9, label %68

9:                                                ; preds = %3
  call void @llvm.lifetime.start.p0(i64 8, ptr nonnull %4) #25
  call void @_ZNK4cvc58internal12NodeTemplateILb1EE6eqNodeILb1EEES2_RKNS1_IXT_EEE(ptr dead_on_unwind nonnull writable sret(%"class.cvc5::internal::NodeTemplate") align 8 %5, ptr noundef nonnull align 8 dereferenceable(8) %1, ptr noundef nonnull align 8 dereferenceable(8) %2)
  invoke void @_ZN4cvc58internal13SkolemManager15getOriginalFormENS0_12NodeTemplateILb1EEE(ptr dead_on_unwind nonnull writable sret(%"class.cvc5::internal::NodeTemplate") align 8 %4, ptr noundef nonnull %5)
          to label %10 unwind label %61

10:                                               ; preds = %9
  %11 = load ptr, ptr %5, align 8, !tbaa !294
  %12 = load i64, ptr %11, align 8
  %13 = and i64 %12, 1152920405095219200
  %.not.i.i = icmp eq i64 %13, 1152920405095219200
  br i1 %.not.i.i, label %_ZN4cvc58internal12NodeTemplateILb1EED2Ev.exit, label %14, !prof !297

14:                                               ; preds = %10
  %15 = add i64 %12, 1152920405095219200
  %16 = and i64 %15, 1152920405095219200
  %17 = and i64 %12, -1152920405095219201
  %18 = or disjoint i64 %16, %17
  store i64 %18, ptr %11, align 8
  %19 = icmp eq i64 %16, 0
  br i1 %19, label %20, label %_ZN4cvc58internal12NodeTemplateILb1EED2Ev.exit, !prof !297

20:                                               ; preds = %14
  invoke void @_ZN4cvc58internal4expr9NodeValue15markForDeletionEv(ptr noundef nonnull align 8 dereferenceable(24) %11)
          to label %_ZN4cvc58internal12NodeTemplateILb1EED2Ev.exit unwind label %21

21:                                               ; preds = %20
  %22 = landingpad { ptr, i32 }
          catch ptr null
  %23 = extractvalue { ptr, i32 } %22, 0
  call void @__clang_call_terminate(ptr %23) #27
  unreachable

_ZN4cvc58internal12NodeTemplateILb1EED2Ev.exit:   ; preds = %10, %14, %20
  %24 = invoke noundef nonnull align 8 dereferenceable(8) ptr @_ZNK4cvc58internal6EnvObj6outputENS0_7options9OutputTagE(ptr noundef nonnull align 8 dereferenceable(16) %0, i32 noundef 11)
          to label %25 unwind label %63

25:                                               ; preds = %_ZN4cvc58internal12NodeTemplateILb1EED2Ev.exit
  %26 = invoke noundef nonnull align 8 dereferenceable(8) ptr @_ZSt16__ostream_insertIcSt11char_traitsIcEERSt13basic_ostreamIT_T0_ES6_PKS3_l(ptr noundef nonnull align 8 dereferenceable(8) %24, ptr noundef nonnull @.str.6, i64 noundef 14)
          to label %_ZStlsISt11char_traitsIcEERSt13basic_ostreamIcT_ES5_PKc.exit unwind label %63

_ZStlsISt11char_traitsIcEERSt13basic_ostreamIcT_ES5_PKc.exit: ; preds = %25
  %27 = load ptr, ptr %4, align 8, !tbaa !294
  invoke void @_ZNK4cvc58internal4expr9NodeValue8toStreamERSo(ptr noundef nonnull align 8 dereferenceable(24) %27, ptr noundef nonnull align 8 dereferenceable(8) %24)
          to label %_ZN4cvc58internallsERSoNS0_12NodeTemplateILb0EEE.exit unwind label %65

_ZN4cvc58internallsERSoNS0_12NodeTemplateILb0EEE.exit: ; preds = %_ZStlsISt11char_traitsIcEERSt13basic_ostreamIcT_ES5_PKc.exit
  %28 = invoke noundef nonnull align 8 dereferenceable(8) ptr @_ZSt16__ostream_insertIcSt11char_traitsIcEERSt13basic_ostreamIT_T0_ES6_PKS3_l(ptr noundef nonnull align 8 dereferenceable(8) %24, ptr noundef nonnull @.str.7, i64 noundef 1)
          to label %_ZStlsISt11char_traitsIcEERSt13basic_ostreamIcT_ES5_PKc.exit10 unwind label %65

_ZStlsISt11char_traitsIcEERSt13basic_ostreamIcT_ES5_PKc.exit10: ; preds = %_ZN4cvc58internallsERSoNS0_12NodeTemplateILb0EEE.exit
  %29 = load ptr, ptr %24, align 8, !tbaa !3
  %30 = getelementptr i8, ptr %29, i64 -24
  %31 = load i64, ptr %30, align 8
  %32 = getelementptr inbounds i8, ptr %24, i64 %31
  %33 = getelementptr inbounds nuw i8, ptr %32, i64 240
  %34 = load ptr, ptr %33, align 8, !tbaa !314
  %.not.i.i.i = icmp eq ptr %34, null
  br i1 %.not.i.i.i, label %35, label %_ZSt13__check_facetISt5ctypeIcEERKT_PS3_.exit.i.i

35:                                               ; preds = %_ZStlsISt11char_traitsIcEERSt13basic_ostreamIcT_ES5_PKc.exit10
  invoke void @_ZSt16__throw_bad_castv() #28
          to label %.noexc unwind label %65

.noexc:                                           ; preds = %35
  unreachable

_ZSt13__check_facetISt5ctypeIcEERKT_PS3_.exit.i.i: ; preds = %_ZStlsISt11char_traitsIcEERSt13basic_ostreamIcT_ES5_PKc.exit10
  %36 = getelementptr inbounds nuw i8, ptr %34, i64 56
  %37 = load i8, ptr %36, align 8, !tbaa !329
  %.not.i1.i.i = icmp eq i8 %37, 0
  br i1 %.not.i1.i.i, label %41, label %38

38:                                               ; preds = %_ZSt13__check_facetISt5ctypeIcEERKT_PS3_.exit.i.i
  %39 = getelementptr inbounds nuw i8, ptr %34, i64 67
  %40 = load i8, ptr %39, align 1, !tbaa !76
  br label %_ZNKSt9basic_iosIcSt11char_traitsIcEE5widenEc.exit.i

41:                                               ; preds = %_ZSt13__check_facetISt5ctypeIcEERKT_PS3_.exit.i.i
  invoke void @_ZNKSt5ctypeIcE13_M_widen_initEv(ptr noundef nonnull align 8 dereferenceable(570) %34)
          to label %.noexc13 unwind label %65

.noexc13:                                         ; preds = %41
  %42 = load ptr, ptr %34, align 8, !tbaa !3
  %43 = getelementptr inbounds nuw i8, ptr %42, i64 48
  %44 = load ptr, ptr %43, align 8
  %45 = invoke noundef signext i8 %44(ptr noundef nonnull align 8 dereferenceable(570) %34, i8 noundef signext 10)
          to label %_ZNKSt9basic_iosIcSt11char_traitsIcEE5widenEc.exit.i unwind label %65

_ZNKSt9basic_iosIcSt11char_traitsIcEE5widenEc.exit.i: ; preds = %.noexc13, %38
  %.0.i.i.i = phi i8 [ %40, %38 ], [ %45, %.noexc13 ]
  %46 = invoke noundef nonnull align 8 dereferenceable(8) ptr @_ZNSo3putEc(ptr noundef nonnull align 8 dereferenceable(8) %24, i8 noundef signext %.0.i.i.i)
          to label %.noexc15 unwind label %65

.noexc15:                                         ; preds = %_ZNKSt9basic_iosIcSt11char_traitsIcEE5widenEc.exit.i
  %47 = invoke noundef nonnull align 8 dereferenceable(8) ptr @_ZNSo5flushEv(ptr noundef nonnull align 8 dereferenceable(8) %46)
          to label %_ZNSolsEPFRSoS_E.exit unwind label %65

_ZNSolsEPFRSoS_E.exit:                            ; preds = %.noexc15
  %48 = load ptr, ptr %4, align 8, !tbaa !294
  %49 = load i64, ptr %48, align 8
  %50 = and i64 %49, 1152920405095219200
  %.not.i.i11 = icmp eq i64 %50, 1152920405095219200
  br i1 %.not.i.i11, label %_ZN4cvc58internal12NodeTemplateILb1EED2Ev.exit12, label %51, !prof !297

51:                                               ; preds = %_ZNSolsEPFRSoS_E.exit
  %52 = add i64 %49, 1152920405095219200
  %53 = and i64 %52, 1152920405095219200
  %54 = and i64 %49, -1152920405095219201
  %55 = or disjoint i64 %53, %54
  store i64 %55, ptr %48, align 8
  %56 = icmp eq i64 %53, 0
  br i1 %56, label %57, label %_ZN4cvc58internal12NodeTemplateILb1EED2Ev.exit12, !prof !297

57:                                               ; preds = %51
  invoke void @_ZN4cvc58internal4expr9NodeValue15markForDeletionEv(ptr noundef nonnull align 8 dereferenceable(24) %48)
          to label %_ZN4cvc58internal12NodeTemplateILb1EED2Ev.exit12 unwind label %58

58:                                               ; preds = %57
  %59 = landingpad { ptr, i32 }
          catch ptr null
  %60 = extractvalue { ptr, i32 } %59, 0
  call void @__clang_call_terminate(ptr %60) #27
  unreachable

_ZN4cvc58internal12NodeTemplateILb1EED2Ev.exit12: ; preds = %_ZNSolsEPFRSoS_E.exit, %51, %57
  call void @llvm.lifetime.end.p0(i64 8, ptr nonnull %4) #25
  br label %68

61:                                               ; preds = %9
  %62 = landingpad { ptr, i32 }
          cleanup
  br label %67

63:                                               ; preds = %25, %_ZN4cvc58internal12NodeTemplateILb1EED2Ev.exit
  %64 = landingpad { ptr, i32 }
          cleanup
  br label %67

65:                                               ; preds = %.noexc15, %_ZNKSt9basic_iosIcSt11char_traitsIcEE5widenEc.exit.i, %.noexc13, %41, %35, %_ZN4cvc58internallsERSoNS0_12NodeTemplateILb0EEE.exit, %_ZStlsISt11char_traitsIcEERSt13basic_ostreamIcT_ES5_PKc.exit
  %66 = landingpad { ptr, i32 }
          cleanup
  br label %67

67:                                               ; preds = %63, %65, %61
  %.sink = phi ptr [ %5, %61 ], [ %4, %65 ], [ %4, %63 ]
  %.pn.pn = phi { ptr, i32 } [ %62, %61 ], [ %66, %65 ], [ %64, %63 ]
  call void @_ZN4cvc58internal12NodeTemplateILb1EED2Ev(ptr noundef nonnull align 8 dereferenceable(8) %.sink) #25
  call void @llvm.lifetime.end.p0(i64 8, ptr nonnull %4) #25
  resume { ptr, i32 } %.pn.pn

68:                                               ; preds = %_ZN4cvc58internal12NodeTemplateILb1EED2Ev.exit12, %3
  ret void
}